target datalayout = "e-m:e-p270:32:32-p271:32:32-p272:64:64-i64:64-i128:128-f80:128-n8:16:32:64-S128"
target triple = "x86_64-pc-linux-gnu"

%class.vector.63 = type { ptr }
%"class.datalog::tr_infrastructure<datalog::relation_traits>::base_ancestor" = type <{ ptr, ptr, %"class.datalog::relation_signature", i32, [4 x i8] }>
%"class.datalog::relation_signature" = type { %"class.datalog::tr_infrastructure<datalog::relation_traits>::signature_base" }
%"class.datalog::tr_infrastructure<datalog::relation_traits>::signature_base" = type { %class.ptr_vector.62 }
%class.ptr_vector.62 = type { %class.vector.63 }

@_ZN7datalog17interval_relationC1ERNS_24interval_relation_pluginERKNS_18relation_signatureEb = hidden unnamed_addr alias void (ptr, ptr, ptr, i1), ptr @_ZN7datalog17interval_relationC2ERNS_24interval_relation_pluginERKNS_18relation_signatureEb

; Function Attrs: mustprogress nounwind uwtable
define linkonce_odr hidden noundef nonnull align 8 dereferenceable(36) ptr @_ZNK7datalog17tr_infrastructureINS_15relation_traitsEE13base_ancestor10get_pluginEv(ptr noundef nonnull align 8 dereferenceable(28) %0) #7 comdat align 2 {
  %2 = alloca ptr, align 8
  store ptr %0, ptr %2, align 8, !tbaa !52
  %3 = load ptr, ptr %2, align 8
  %4 = getelementptr inbounds nuw %"class.datalog::tr_infrastructure<datalog::relation_traits>::base_ancestor", ptr %3, i32 0, i32 1
  %5 = load ptr, ptr %4, align 8, !tbaa !185
  ret ptr %5
}

; Function Attrs: mustprogress nounwind uwtable
define linkonce_odr hidden noundef nonnull align 8 dereferenceable(8) ptr @_ZNK7datalog17tr_infrastructureINS_15relation_traitsEE13base_ancestor13get_signatureEv(ptr noundef nonnull align 8 dereferenceable(28) %0) #7 comdat align 2 {
  %2 = alloca ptr, align 8
  store ptr %0, ptr %2, align 8, !tbaa !52
  %3 = load ptr, ptr %2, align 8
  %4 = getelementptr inbounds nuw %"class.datalog::tr_infrastructure<datalog::relation_traits>::base_ancestor", ptr %3, i32 0, i32 2
  ret ptr %4
}

; Function Attrs: mustprogress uwtable
define hidden noundef nonnull align 8 dereferenceable(240) ptr @_ZNK7datalog17interval_relation10get_pluginEv(ptr noundef nonnull align 8 dereferenceable(224) %0) #4 align 2 {
  %2 = alloca ptr, align 8
  store ptr %0, ptr %2, align 8, !tbaa !99
  %3 = load ptr, ptr %2, align 8
  %4 = call noundef nonnull align 8 dereferenceable(36) ptr @_ZNK7datalog17tr_infrastructureINS_15relation_traitsEE13base_ancestor10get_pluginEv(ptr noundef nonnull align 8 dereferenceable(28) %3)
  ret ptr %4
}

; Function Attrs: mustprogress uwtable
define hidden noundef ptr @_ZNK7datalog17interval_relation5cloneEv(ptr noundef nonnull align 8 dereferenceable(224) %0) unnamed_addr #4 align 2 {
  %2 = alloca ptr, align 8
  %3 = alloca ptr, align 8
  store ptr %0, ptr %2, align 8, !tbaa !99
  %4 = load ptr, ptr %2, align 8
  call void @llvm.lifetime.start.p0(i64 8, ptr %3) #3
  %5 = call noalias noundef ptr @_ZN6memory8allocateEm(i64 noundef 224)
  %6 = call noundef nonnull align 8 dereferenceable(240) ptr @_ZNK7datalog17interval_relation10get_pluginEv(ptr noundef nonnull align 8 dereferenceable(224) %4)
  %7 = call noundef nonnull align 8 dereferenceable(8) ptr @_ZNK7datalog17tr_infrastructureINS_15relation_traitsEE13base_ancestor13get_signatureEv(ptr noundef nonnull align 8 dereferenceable(28) %4)
  %8 = load ptr, ptr %4, align 8, !tbaa !10
  %9 = getelementptr inbounds ptr, ptr %8, i64 3
  %10 = load ptr, ptr %9, align 8
  %11 = call noundef zeroext i1 %10(ptr noundef nonnull align 8 dereferenceable(224) %4)
  call void @_ZN7datalog17interval_relationC1ERNS_24interval_relation_pluginERKNS_18relation_signatureEb(ptr noundef nonnull align 8 dereferenceable(224) %5, ptr noundef nonnull align 8 dereferenceable(240) %6, ptr noundef nonnull align 8 dereferenceable(8) %7, i1 noundef zeroext %11)
  store ptr %5, ptr %3, align 8, !tbaa !99
  %12 = load ptr, ptr %3, align 8, !tbaa !99
  call void @_ZN7datalog15vector_relationI12old_intervalNS_22vector_relation_helperIS1_EEE4copyERKS4_(ptr noundef nonnull align 8 dereferenceable(224) %12, ptr noundef nonnull align 8 dereferenceable(224) %4)
  %13 = load ptr, ptr %3, align 8, !tbaa !99
  call void @llvm.lifetime.end.p0(i64 8, ptr %3) #3
  ret ptr %13
}