; Function Attrs: mustprogress uwtable
define hidden noundef ptr @_ZNK7datalog17interval_relation5cloneEv(ptr noundef nonnull align 8 dereferenceable(224) %0) unnamed_addr #3 align 2 {
  %2 = tail call noalias noundef ptr @_ZN6memory8allocateEm(i64 noundef 224)
  %3 = getelementptr inbounds nuw i8, ptr %0, i64 8
  %4 = load ptr, ptr %3, align 8, !tbaa !48
  %5 = getelementptr inbounds nuw i8, ptr %0, i64 16
  %6 = load ptr, ptr %0, align 8, !tbaa !17
  %7 = getelementptr inbounds nuw i8, ptr %6, i64 24
  %8 = load ptr, ptr %7, align 8
  %9 = tail call noundef zeroext i1 %8(ptr noundef nonnull align 8 dereferenceable(224) %0)
  tail call void @_ZN7datalog17interval_relationC2ERNS_24interval_relation_pluginERKNS_18relation_signatureEb(ptr noundef nonnull align 8 dereferenceable(224) %2, ptr noundef nonnull align 8 dereferenceable(240) %4, ptr noundef nonnull align 8 dereferenceable(8) %5, i1 noundef zeroext %9)
  tail call void @_ZN7datalog15vector_relationI12old_intervalNS_22vector_relation_helperIS1_EEE4copyERKS4_(ptr noundef nonnull align 8 dereferenceable(224) %2, ptr noundef nonnull align 8 dereferenceable(224) %0)
  ret ptr %2
}